(lp0
cdatetime
timedelta
p1
(I0
I1539
I0
tp2
Rp3
ag1
(I0
I216
I0
tp4
Rp5
ag1
(I0
I1617
I0
tp6
Rp7
ag1
(I0
I102
I0
tp8
Rp9
ag1
(I0
I579
I0
tp10
Rp11
ag1
(I0
I23
I0
tp12
Rp13
ag1
(I0
I11071
I0
tp14
Rp15
ag1
(I0
I1483
I0
tp16
Rp17
ag1
(I0
I982
I0
tp18
Rp19
ag1
(I0
I1264
I0
tp20
Rp21
ag1
(I0
I884
I0
tp22
Rp23
ag1
(I0
I612
I0
tp24
Rp25
ag1
(I0
I1983
I0
tp26
Rp27
ag1
(I0
I303
I0
tp28
Rp29
ag1
(I0
I62
I0
tp30
Rp31
ag1
(I0
I6032
I0
tp32
Rp33
ag1
(I0
I17491
I0
tp34
Rp35
ag1
(I0
I56
I0
tp36
Rp37
ag1
(I0
I2746
I0
tp38
Rp39
ag1
(I0
I44
I0
tp40
Rp41
ag1
(I0
I681
I0
tp42
Rp43
ag1
(I0
I370
I0
tp44
Rp45
ag1
(I0
I1484
I0
tp46
Rp47
ag1
(I2
I76535
I0
tp48
Rp49
ag1
(I0
I7171
I0
tp50
Rp51
ag1
(I0
I98
I0
tp52
Rp53
ag1
(I0
I28
I0
tp54
Rp55
ag1
(I0
I93
I0
tp56
Rp57
ag1
(I0
I94
I0
tp58
Rp59
ag1
(I0
I2637
I0
tp60
Rp61
ag1
(I0
I39
I0
tp62
Rp63
ag1
(I0
I704
I0
tp64
Rp65
ag1
(I0
I145
I0
tp66
Rp67
ag1
(I3
I1546
I0
tp68
Rp69
ag1
(I0
I20320
I0
tp70
Rp71
ag1
(I0
I283
I0
tp72
Rp73
ag1
(I1
I10049
I0
tp74
Rp75
ag1
(I0
I640
I0
tp76
Rp77
ag1
(I4
I78752
I0
tp78
Rp79
ag1
(I0
I1076
I0
tp80
Rp81
ag1
(I0
I29830
I0
tp82
Rp83
ag1
(I0
I189
I0
tp84
Rp85
ag1
(I0
I15755
I0
tp86
Rp87
ag1
(I0
I52
I0
tp88
Rp89
ag1
(I0
I2811
I0
tp90
Rp91
ag1
(I0
I35
I0
tp92
Rp93
ag1
(I0
I45
I0
tp94
Rp95
ag1
(I0
I8832
I0
tp96
Rp97
ag1
(I0
I202
I0
tp98
Rp99
ag1
(I0
I405
I0
tp100
Rp101
ag1
(I0
I173
I0
tp102
Rp103
ag1
(I0
I539
I0
tp104
Rp105
ag1
(I0
I418
I0
tp106
Rp107
ag1
(I0
I143
I0
tp108
Rp109
ag1
(I0
I349
I0
tp110
Rp111
ag1
(I0
I1383
I0
tp112
Rp113
ag1
(I0
I23949
I0
tp114
Rp115
ag1
(I0
I323
I0
tp116
Rp117
ag1
(I0
I3460
I0
tp118
Rp119
ag1
(I0
I1794
I0
tp120
Rp121
ag1
(I1
I25674
I0
tp122
Rp123
ag1
(I0
I25241
I0
tp124
Rp125
ag1
(I0
I13672
I0
tp126
Rp127
ag1
(I0
I5139
I0
tp128
Rp129
ag1
(I0
I2179
I0
tp130
Rp131
ag1
(I0
I557
I0
tp132
Rp133
ag1
(I0
I436
I0
tp134
Rp135
ag1
(I0
I1095
I0
tp136
Rp137
ag1
(I0
I2494
I0
tp138
Rp139
ag1
(I0
I27217
I0
tp140
Rp141
ag1
(I0
I31
I0
tp142
Rp143
ag1
(I0
I203
I0
tp144
Rp145
ag1
(I0
I102
I0
tp146
Rp147
ag1
(I0
I12330
I0
tp148
Rp149
ag1
(I0
I4204
I0
tp150
Rp151
ag1
(I0
I2362
I0
tp152
Rp153
ag1
(I0
I239
I0
tp154
Rp155
ag1
(I4
I24948
I0
tp156
Rp157
ag1
(I0
I83
I0
tp158
Rp159
ag1
(I0
I6072
I0
tp160
Rp161
ag1
(I0
I100
I0
tp162
Rp163
ag1
(I0
I211
I0
tp164
Rp165
ag1
(I0
I542
I0
tp166
Rp167
ag1
(I0
I637
I0
tp168
Rp169
ag1
(I0
I645
I0
tp170
Rp171
ag1
(I0
I3615
I0
tp172
Rp173
ag1
(I0
I7861
I0
tp174
Rp175
ag1
(I0
I14154
I0
tp176
Rp177
ag1
(I0
I1637
I0
tp178
Rp179
ag1
(I0
I64954
I0
tp180
Rp181
ag1
(I0
I32908
I0
tp182
Rp183
ag1
(I0
I227
I0
tp184
Rp185
ag1
(I0
I946
I0
tp186
Rp187
ag1
(I5
I68613
I0
tp188
Rp189
ag1
(I0
I60
I0
tp190
Rp191
ag1
(I0
I168
I0
tp192
Rp193
ag1
(I0
I1973
I0
tp194
Rp195
ag1
(I0
I2804
I0
tp196
Rp197
ag1
(I0
I4
I0
tp198
Rp199
ag1
(I0
I19
I0
tp200
Rp201
ag1
(I0
I9491
I0
tp202
Rp203
ag1
(I0
I84455
I0
tp204
Rp205
ag1
(I0
I219
I0
tp206
Rp207
ag1
(I0
I304
I0
tp208
Rp209
ag1
(I0
I580
I0
tp210
Rp211
ag1
(I0
I30535
I0
tp212
Rp213
ag1
(I0
I12679
I0
tp214
Rp215
ag1
(I0
I354
I0
tp216
Rp217
ag1
(I0
I7096
I0
tp218
Rp219
ag1
(I0
I709
I0
tp220
Rp221
ag1
(I0
I2860
I0
tp222
Rp223
ag1
(I0
I135
I0
tp224
Rp225
ag1
(I0
I14606
I0
tp226
Rp227
ag1
(I0
I137
I0
tp228
Rp229
ag1
(I0
I302
I0
tp230
Rp231
ag1
(I0
I13395
I0
tp232
Rp233
ag1
(I0
I882
I0
tp234
Rp235
ag1
(I0
I1239
I0
tp236
Rp237
ag1
(I0
I219
I0
tp238
Rp239
ag1
(I0
I163
I0
tp240
Rp241
ag1
(I0
I16852
I0
tp242
Rp243
ag1
(I0
I487
I0
tp244
Rp245
ag1
(I0
I1672
I0
tp246
Rp247
ag1
(I0
I156
I0
tp248
Rp249
ag1
(I0
I4488
I0
tp250
Rp251
ag1
(I0
I30244
I0
tp252
Rp253
ag1
(I0
I1158
I0
tp254
Rp255
ag1
(I0
I216
I0
tp256
Rp257
ag1
(I0
I1617
I0
tp258
Rp259
ag1
(I0
I102
I0
tp260
Rp261
ag1
(I0
I113
I0
tp262
Rp263
ag1
(I0
I22947
I0
tp264
Rp265
ag1
(I74
I17869
I0
tp266
Rp267
ag1
(I0
I621
I0
tp268
Rp269
ag1
(I0
I1483
I0
tp270
Rp271
ag1
(I0
I1626
I0
tp272
Rp273
ag1
(I0
I982
I0
tp274
Rp275
ag1
(I0
I1881
I0
tp276
Rp277
ag1
(I0
I5360
I0
tp278
Rp279
ag1
(I0
I884
I0
tp280
Rp281
ag1
(I0
I8783
I0
tp282
Rp283
ag1
(I0
I1539
I0
tp284
Rp285
ag1
(I0
I303
I0
tp286
Rp287
ag1
(I0
I612
I0
tp288
Rp289
ag1
(I0
I1983
I0
tp290
Rp291
ag1
(I0
I62
I0
tp292
Rp293
ag1
(I0
I579
I0
tp294
Rp295
ag1
(I0
I23
I0
tp296
Rp297
ag1
(I0
I11071
I0
tp298
Rp299
ag1
(I0
I681
I0
tp300
Rp301
ag1
(I0
I1264
I0
tp302
Rp303
ag1
(I0
I1484
I0
tp304
Rp305
ag1
(I0
I7171
I0
tp306
Rp307
ag1
(I0
I98
I0
tp308
Rp309
ag1
(I0
I28
I0
tp310
Rp311
ag1
(I0
I93
I0
tp312
Rp313
ag1
(I0
I6032
I0
tp314
Rp315
ag1
(I0
I17491
I0
tp316
Rp317
ag1
(I0
I56
I0
tp318
Rp319
ag1
(I0
I39
I0
tp320
Rp321
ag1
(I3
I1546
I0
tp322
Rp323
ag1
(I0
I2746
I0
tp324
Rp325
ag1
(I0
I704
I0
tp326
Rp327
ag1
(I0
I44
I0
tp328
Rp329
ag1
(I0
I20320
I0
tp330
Rp331
ag1
(I0
I370
I0
tp332
Rp333
ag1
(I1
I10049
I0
tp334
Rp335
ag1
(I0
I2637
I0
tp336
Rp337
ag1
(I2
I76535
I0
tp338
Rp339
ag1
(I0
I94
I0
tp340
Rp341
ag1
(I0
I283
I0
tp342
Rp343
ag1
(I0
I145
I0
tp344
Rp345
ag1
(I4
I78752
I0
tp346
Rp347
ag1
(I0
I640
I0
tp348
Rp349
ag1
(I0
I29830
I0
tp350
Rp351
ag1
(I0
I1076
I0
tp352
Rp353
ag1
(I0
I189
I0
tp354
Rp355
ag1
(I0
I52
I0
tp356
Rp357
ag1
(I0
I15755
I0
tp358
Rp359
ag1
(I0
I2811
I0
tp360
Rp361
ag1
(I0
I35
I0
tp362
Rp363
ag1
(I0
I418
I0
tp364
Rp365
ag1
(I0
I8832
I0
tp366
Rp367
ag1
(I0
I45
I0
tp368
Rp369
ag1
(I0
I202
I0
tp370
Rp371
ag1
(I0
I405
I0
tp372
Rp373
ag1
(I0
I539
I0
tp374
Rp375
ag1
(I0
I173
I0
tp376
Rp377
ag1
(I0
I349
I0
tp378
Rp379
ag1
(I0
I143
I0
tp380
Rp381
ag1
(I0
I1383
I0
tp382
Rp383
ag1
(I0
I23949
I0
tp384
Rp385
ag1
(I0
I239
I0
tp386
Rp387
ag1
(I0
I323
I0
tp388
Rp389
ag1
(I0
I2179
I0
tp390
Rp391
ag1
(I0
I1794
I0
tp392
Rp393
ag1
(I0
I3460
I0
tp394
Rp395
ag1
(I0
I25241
I0
tp396
Rp397
ag1
(I4
I24948
I0
tp398
Rp399
ag1
(I0
I27217
I0
tp400
Rp401
ag1
(I1
I25674
I0
tp402
Rp403
ag1
(I0
I13672
I0
tp404
Rp405
ag1
(I0
I100
I0
tp406
Rp407
ag1
(I0
I5139
I0
tp408
Rp409
ag1
(I0
I557
I0
tp410
Rp411
ag1
(I0
I1095
I0
tp412
Rp413
ag1
(I0
I2494
I0
tp414
Rp415
ag1
(I0
I436
I0
tp416
Rp417
ag1
(I0
I31
I0
tp418
Rp419
ag1
(I0
I645
I0
tp420
Rp421
ag1
(I0
I203
I0
tp422
Rp423
ag1
(I0
I211
I0
tp424
Rp425
ag1
(I0
I102
I0
tp426
Rp427
ag1
(I0
I12330
I0
tp428
Rp429
ag1
(I0
I3615
I0
tp430
Rp431
ag1
(I0
I542
I0
tp432
Rp433
ag1
(I0
I4204
I0
tp434
Rp435
ag1
(I0
I7861
I0
tp436
Rp437
ag1
(I0
I2362
I0
tp438
Rp439
ag1
(I0
I83
I0
tp440
Rp441
ag1
(I0
I637
I0
tp442
Rp443
ag1
(I0
I14154
I0
tp444
Rp445
ag1
(I0
I32908
I0
tp446
Rp447
ag1
(I0
I64954
I0
tp448
Rp449
ag1
(I0
I6072
I0
tp450
Rp451
ag1
(I0
I1637
I0
tp452
Rp453
ag1
(I0
I168
I0
tp454
Rp455
ag1
(I5
I68613
I0
tp456
Rp457
ag1
(I0
I946
I0
tp458
Rp459
ag1
(I0
I2804
I0
tp460
Rp461
ag1
(I0
I60
I0
tp462
Rp463
ag1
(I0
I9491
I0
tp464
Rp465
ag1
(I0
I1973
I0
tp466
Rp467
ag1
(I0
I227
I0
tp468
Rp469
ag1
(I0
I4
I0
tp470
Rp471
ag1
(I0
I84455
I0
tp472
Rp473
ag1
(I0
I219
I0
tp474
Rp475
ag1
(I0
I354
I0
tp476
Rp477
ag1
(I0
I30535
I0
tp478
Rp479
ag1
(I0
I12679
I0
tp480
Rp481
ag1
(I0
I304
I0
tp482
Rp483
ag1
(I0
I137
I0
tp484
Rp485
ag1
(I0
I7096
I0
tp486
Rp487
ag1
(I0
I1239
I0
tp488
Rp489
ag1
(I0
I135
I0
tp490
Rp491
ag1
(I0
I709
I0
tp492
Rp493
ag1
(I0
I302
I0
tp494
Rp495
ag1
(I0
I14606
I0
tp496
Rp497
ag1
(I0
I219
I0
tp498
Rp499
ag1
(I0
I882
I0
tp500
Rp501
ag1
(I0
I19
I0
tp502
Rp503
ag1
(I0
I13395
I0
tp504
Rp505
ag1
(I0
I580
I0
tp506
Rp507
ag1
(I0
I16852
I0
tp508
Rp509
ag1
(I0
I4488
I0
tp510
Rp511
ag1
(I0
I1158
I0
tp512
Rp513
ag1
(I0
I487
I0
tp514
Rp515
ag1
(I0
I156
I0
tp516
Rp517
ag1
(I0
I30244
I0
tp518
Rp519
ag1
(I0
I2860
I0
tp520
Rp521
ag1
(I0
I22947
I0
tp522
Rp523
ag1
(I0
I163
I0
tp524
Rp525
ag1
(I0
I5360
I0
tp526
Rp527
ag1
(I0
I1483
I0
tp528
Rp529
ag1
(I0
I1539
I0
tp530
Rp531
ag1
(I0
I1672
I0
tp532
Rp533
ag1
(I0
I982
I0
tp534
Rp535
ag1
(I0
I884
I0
tp536
Rp537
ag1
(I0
I113
I0
tp538
Rp539
ag1
(I0
I579
I0
tp540
Rp541
ag1
(I74
I17869
I0
tp542
Rp543
ag1
(I0
I11071
I0
tp544
Rp545
ag1
(I0
I621
I0
tp546
Rp547
ag1
(I0
I612
I0
tp548
Rp549
ag1
(I0
I1983
I0
tp550
Rp551
ag1
(I0
I1626
I0
tp552
Rp553
ag1
(I0
I62
I0
tp554
Rp555
ag1
(I0
I1881
I0
tp556
Rp557
ag1
(I0
I216
I0
tp558
Rp559
ag1
(I0
I8783
I0
tp560
Rp561
ag1
(I0
I1617
I0
tp562
Rp563
ag1
(I0
I102
I0
tp564
Rp565
ag1
(I0
I681
I0
tp566
Rp567
ag1
(I0
I23
I0
tp568
Rp569
ag1
(I0
I6032
I0
tp570
Rp571
ag1
(I0
I7171
I0
tp572
Rp573
ag1
(I0
I98
I0
tp574
Rp575
ag1
(I0
I56
I0
tp576
Rp577
ag1
(I0
I1264
I0
tp578
Rp579
ag1
(I0
I39
I0
tp580
Rp581
ag1
(I0
I28
I0
tp582
Rp583
ag1
(I0
I2637
I0
tp584
Rp585
ag1
(I0
I704
I0
tp586
Rp587
ag1
(I0
I93
I0
tp588
Rp589
ag1
(I0
I20320
I0
tp590
Rp591
ag1
(I0
I303
I0
tp592
Rp593
ag1
(I0
I283
I0
tp594
Rp595
ag1
(I0
I17491
I0
tp596
Rp597
ag1
(I0
I2746
I0
tp598
Rp599
ag1
(I4
I78752
I0
tp600
Rp601
ag1
(I0
I44
I0
tp602
Rp603
ag1
(I0
I1484
I0
tp604
Rp605
ag1
(I0
I370
I0
tp606
Rp607
ag1
(I0
I145
I0
tp608
Rp609
ag1
(I2
I76535
I0
tp610
Rp611
ag1
(I0
I94
I0
tp612
Rp613
ag1
(I3
I1546
I0
tp614
Rp615
ag1
(I0
I640
I0
tp616
Rp617
ag1
(I1
I10049
I0
tp618
Rp619
ag1
(I0
I1076
I0
tp620
Rp621
ag1
(I0
I52
I0
tp622
Rp623
ag1
(I0
I189
I0
tp624
Rp625
ag1
(I0
I2811
I0
tp626
Rp627
ag1
(I0
I29830
I0
tp628
Rp629
ag1
(I0
I15755
I0
tp630
Rp631
ag1
(I0
I35
I0
tp632
Rp633
ag1
(I0
I8832
I0
tp634
Rp635
ag1
(I0
I45
I0
tp636
Rp637
ag1
(I0
I202
I0
tp638
Rp639
ag1
(I0
I405
I0
tp640
Rp641
ag1
(I0
I173
I0
tp642
Rp643
ag1
(I0
I349
I0
tp644
Rp645
ag1
(I0
I539
I0
tp646
Rp647
ag1
(I0
I143
I0
tp648
Rp649
ag1
(I0
I1383
I0
tp650
Rp651
ag1
(I0
I418
I0
tp652
Rp653
ag1
(I0
I2179
I0
tp654
Rp655
ag1
(I0
I23949
I0
tp656
Rp657
ag1
(I0
I323
I0
tp658
Rp659
ag1
(I0
I27217
I0
tp660
Rp661
ag1
(I0
I1794
I0
tp662
Rp663
ag1
(I0
I3460
I0
tp664
Rp665
ag1
(I0
I25241
I0
tp666
Rp667
ag1
(I0
I13672
I0
tp668
Rp669
ag1
(I1
I25674
I0
tp670
Rp671
ag1
(I0
I5139
I0
tp672
Rp673
ag1
(I0
I557
I0
tp674
Rp675
ag1
(I0
I239
I0
tp676
Rp677
ag1
(I0
I1095
I0
tp678
Rp679
ag1
(I0
I2494
I0
tp680
Rp681
ag1
(I0
I436
I0
tp682
Rp683
ag1
(I0
I31
I0
tp684
Rp685
ag1
(I0
I211
I0
tp686
Rp687
ag1
(I4
I24948
I0
tp688
Rp689
ag1
(I0
I203
I0
tp690
Rp691
ag1
(I0
I100
I0
tp692
Rp693
ag1
(I0
I102
I0
tp694
Rp695
ag1
(I0
I542
I0
tp696
Rp697
ag1
(I0
I12330
I0
tp698
Rp699
ag1
(I0
I4204
I0
tp700
Rp701
ag1
(I0
I645
I0
tp702
Rp703
ag1
(I0
I637
I0
tp704
Rp705
ag1
(I0
I2362
I0
tp706
Rp707
ag1
(I0
I168
I0
tp708
Rp709
ag1
(I0
I14154
I0
tp710
Rp711
ag1
(I0
I83
I0
tp712
Rp713
ag1
(I0
I2804
I0
tp714
Rp715
ag1
(I0
I64954
I0
tp716
Rp717
ag1
(I0
I9491
I0
tp718
Rp719
ag1
(I0
I3615
I0
tp720
Rp721
ag1
(I0
I6072
I0
tp722
Rp723
ag1
(I0
I946
I0
tp724
Rp725
ag1
(I0
I1973
I0
tp726
Rp727
ag1
(I0
I1637
I0
tp728
Rp729
ag1
(I0
I7861
I0
tp730
Rp731
ag1
(I0
I354
I0
tp732
Rp733
ag1
(I0
I227
I0
tp734
Rp735
ag1
(I0
I30535
I0
tp736
Rp737
ag1
(I0
I32908
I0
tp738
Rp739
ag1
(I0
I137
I0
tp740
Rp741
ag1
(I0
I12679
I0
tp742
Rp743
ag1
(I0
I1239
I0
tp744
Rp745
ag1
(I0
I219
I0
tp746
Rp747
ag1
(I5
I68613
I0
tp748
Rp749
ag1
(I0
I304
I0
tp750
Rp751
ag1
(I0
I60
I0
tp752
Rp753
ag1
(I0
I14606
I0
tp754
Rp755
ag1
(I0
I4
I0
tp756
Rp757
ag1
(I0
I13395
I0
tp758
Rp759
ag1
(I0
I84455
I0
tp760
Rp761
ag1
(I0
I219
I0
tp762
Rp763
ag1
(I0
I7096
I0
tp764
Rp765
ag1
(I0
I709
I0
tp766
Rp767
ag1
(I0
I19
I0
tp768
Rp769
ag1
(I0
I1158
I0
tp770
Rp771
ag1
(I0
I580
I0
tp772
Rp773
ag1
(I0
I22947
I0
tp774
Rp775
ag1
(I0
I135
I0
tp776
Rp777
ag1
(I0
I487
I0
tp778
Rp779
ag1
(I0
I302
I0
tp780
Rp781
ag1
(I0
I156
I0
tp782
Rp783
ag1
(I0
I5360
I0
tp784
Rp785
ag1
(I0
I882
I0
tp786
Rp787
ag1
(I0
I2860
I0
tp788
Rp789
ag1
(I0
I16852
I0
tp790
Rp791
ag1
(I0
I163
I0
tp792
Rp793
ag1
(I0
I4488
I0
tp794
Rp795
ag1
(I0
I1672
I0
tp796
Rp797
ag1
(I0
I113
I0
tp798
Rp799
ag1
(I0
I30244
I0
tp800
Rp801
ag1
(I74
I17869
I0
tp802
Rp803
ag1
(I0
I621
I0
tp804
Rp805
ag1
(I0
I1626
I0
tp806
Rp807
ag1
(I0
I1881
I0
tp808
Rp809
ag1
(I0
I8783
I0
tp810
Rp811
a.